target datalayout = "e-m:e-p270:32:32-p271:32:32-p272:64:64-i64:64-i128:128-f80:128-n8:16:32:64-S128"
target triple = "x86_64-pc-linux-gnu"

@.str.14 = private unnamed_addr constant [40 x i8] c"../openssl/test/endecoder_legacy_test.c\00", align 1
@.str.67 = private unnamed_addr constant [2 x i8] c"0\00", align 1
@.str.70 = private unnamed_addr constant [11 x i8] c"len_legacy\00", align 1
@.str.71 = private unnamed_addr constant [13 x i8] c"len_provided\00", align 1
@.str.72 = private unnamed_addr constant [13 x i8] c"str_provided\00", align 1
@.str.73 = private unnamed_addr constant [11 x i8] c"str_legacy\00", align 1

; Function Attrs: nounwind uwtable
define internal i32 @test_membio_str_eq(ptr noundef %0, ptr noundef %1) #0 {
  %3 = alloca ptr, align 8
  %4 = alloca ptr, align 8
  %5 = alloca ptr, align 8
  %6 = alloca ptr, align 8
  %7 = alloca i64, align 8
  %8 = alloca i64, align 8
  store ptr %0, ptr %3, align 8, !tbaa !59
  store ptr %1, ptr %4, align 8, !tbaa !59
  call void @llvm.lifetime.start.p0(i64 8, ptr %5) #4
  store ptr null, ptr %5, align 8, !tbaa !19
  call void @llvm.lifetime.start.p0(i64 8, ptr %6) #4
  store ptr null, ptr %6, align 8, !tbaa !19
  call void @llvm.lifetime.start.p0(i64 8, ptr %7) #4
  %9 = load ptr, ptr %3, align 8, !tbaa !59
  %10 = call i64 @BIO_ctrl(ptr noundef %9, i32 noundef 3, i64 noundef 0, ptr noundef %5)
  store i64 %10, ptr %7, align 8, !tbaa !4
  call void @llvm.lifetime.start.p0(i64 8, ptr %8) #4
  %11 = load ptr, ptr %4, align 8, !tbaa !59
  %12 = call i64 @BIO_ctrl(ptr noundef %11, i32 noundef 3, i64 noundef 0, ptr noundef %6)
  store i64 %12, ptr %8, align 8, !tbaa !4
  %13 = load i64, ptr %8, align 8, !tbaa !4
  %14 = call i32 @test_long_ge(ptr noundef @.str.14, i32 noundef 292, ptr noundef @.str.70, ptr noundef @.str.67, i64 noundef %13, i64 noundef 0)
  %15 = icmp ne i32 %14, 0
  br i1 %15, label %16, label %27

16:                                               ; preds = %2
  %17 = load i64, ptr %7, align 8, !tbaa !4
  %18 = call i32 @test_long_ge(ptr noundef @.str.14, i32 noundef 293, ptr noundef @.str.71, ptr noundef @.str.67, i64 noundef %17, i64 noundef 0)
  %19 = icmp ne i32 %18, 0
  br i1 %19, label %20, label %27

20:                                               ; preds = %16
  %21 = load ptr, ptr %5, align 8, !tbaa !19
  %22 = load i64, ptr %7, align 8, !tbaa !4
  %23 = load ptr, ptr %6, align 8, !tbaa !19
  %24 = load i64, ptr %8, align 8, !tbaa !4
  %25 = call i32 @test_strn_eq(ptr noundef @.str.14, i32 noundef 295, ptr noundef @.str.72, ptr noundef @.str.73, ptr noundef %21, i64 noundef %22, ptr noundef %23, i64 noundef %24)
  %26 = icmp ne i32 %25, 0
  br label %27

27:                                               ; preds = %20, %16, %2
  %28 = phi i1 [ false, %16 ], [ false, %2 ], [ %26, %20 ]
  %29 = zext i1 %28 to i32
  call void @llvm.lifetime.end.p0(i64 8, ptr %8) #4
  call void @llvm.lifetime.end.p0(i64 8, ptr %7) #4
  call void @llvm.lifetime.end.p0(i64 8, ptr %6) #4
  call void @llvm.lifetime.end.p0(i64 8, ptr %5) #4
  ret i32 %29
}