; Function Attrs: nounwind uwtable
define internal fastcc range(i32 0, 2) i32 @test_membio_str_eq(ptr noundef %0, ptr noundef %1) unnamed_addr #1 {
  %3 = alloca ptr, align 8
  %4 = alloca ptr, align 8
  call void @llvm.lifetime.start.p0(i64 8, ptr nonnull %3) #5
  store ptr null, ptr %3, align 8, !tbaa !26
  call void @llvm.lifetime.start.p0(i64 8, ptr nonnull %4) #5
  store ptr null, ptr %4, align 8, !tbaa !26
  %5 = call i64 @BIO_ctrl(ptr noundef %0, i32 noundef 3, i64 noundef 0, ptr noundef nonnull %3) #5
  %6 = call i64 @BIO_ctrl(ptr noundef %1, i32 noundef 3, i64 noundef 0, ptr noundef nonnull %4) #5
  %7 = call i32 @test_long_ge(ptr noundef nonnull @.str.14, i32 noundef 292, ptr noundef nonnull @.str.70, ptr noundef nonnull @.str.67, i64 noundef %6, i64 noundef 0) #5
  %.not = icmp eq i32 %7, 0
  br i1 %.not, label %16, label %8

8:                                                ; preds = %2
  %9 = call i32 @test_long_ge(ptr noundef nonnull @.str.14, i32 noundef 293, ptr noundef nonnull @.str.71, ptr noundef nonnull @.str.67, i64 noundef %5, i64 noundef 0) #5
  %.not5 = icmp eq i32 %9, 0
  br i1 %.not5, label %16, label %10

10:                                               ; preds = %8
  %11 = load ptr, ptr %3, align 8, !tbaa !26
  %12 = load ptr, ptr %4, align 8, !tbaa !26
  %13 = call i32 @test_strn_eq(ptr noundef nonnull @.str.14, i32 noundef 295, ptr noundef nonnull @.str.72, ptr noundef nonnull @.str.73, ptr noundef %11, i64 noundef %5, ptr noundef %12, i64 noundef %6) #5
  %14 = icmp ne i32 %13, 0
  %15 = zext i1 %14 to i32
  br label %16

16:                                               ; preds = %10, %8, %2
  %17 = phi i32 [ 0, %8 ], [ 0, %2 ], [ %15, %10 ]
  call void @llvm.lifetime.end.p0(i64 8, ptr nonnull %4) #5
  call void @llvm.lifetime.end.p0(i64 8, ptr nonnull %3) #5
  ret i32 %17
}